target datalayout = "e-m:e-p270:32:32-p271:32:32-p272:64:64-i64:64-i128:128-f80:128-n8:16:32:64-S128"
target triple = "x86_64-pc-linux-gnu"

%struct.attribute_info = type { i32, i32, i32, i32, ptr, i32, ptr, ptr }

@hf_set_cyclic_list_attribute_cnt = internal global i32 0, align 4
@hf_set_cyclic_list_attribute_id = internal global i32 0, align 4
@hf_set_cyclic_list_read_block_id = internal global i32 0, align 4
@hf_set_cyclic_list_attr_sts = internal global i32 0, align 4
@ett_set_cyclic_list = internal global i32 0, align 4
@.str.719 = private unnamed_addr constant [6 x i8] c" (%s)\00", align 1

; Function Attrs: nounwind uwtable
define internal void @dissect_set_cyclic_list_respone(ptr noundef %0, ptr noundef %1, i32 noundef %2, i32 noundef %3, i32 noundef %4, ptr noundef %5) #0 {
  %7 = alloca ptr, align 8
  %8 = alloca ptr, align 8
  %9 = alloca i32, align 4
  %10 = alloca i32, align 4
  %11 = alloca i32, align 4
  %12 = alloca ptr, align 8
  %13 = alloca ptr, align 8
  %14 = alloca i32, align 4
  %15 = alloca i32, align 4
  %16 = alloca i32, align 4
  %17 = alloca ptr, align 8
  %18 = alloca ptr, align 8
  store ptr %0, ptr %7, align 8
  store ptr %1, ptr %8, align 8
  store i32 %2, ptr %9, align 4
  store i32 %3, ptr %10, align 4
  store i32 %4, ptr %11, align 4
  store ptr %5, ptr %12, align 8
  %19 = load ptr, ptr %8, align 8
  %20 = load ptr, ptr %7, align 8
  %21 = load i32, ptr %9, align 4
  %22 = load i32, ptr %10, align 4
  %23 = load i32, ptr @ett_set_cyclic_list, align 4
  %24 = load ptr, ptr %12, align 8
  %25 = call ptr @proto_tree_add_subtree(ptr noundef %19, ptr noundef %20, i32 noundef %21, i32 noundef %22, i32 noundef %23, ptr noundef null, ptr noundef %24)
  store ptr %25, ptr %13, align 8
  %26 = load ptr, ptr %13, align 8
  %27 = load i32, ptr @hf_set_cyclic_list_attribute_cnt, align 4
  %28 = load ptr, ptr %7, align 8
  %29 = load i32, ptr %9, align 4
  %30 = call ptr @proto_tree_add_item_ret_uint(ptr noundef %26, i32 noundef %27, ptr noundef %28, i32 noundef %29, i32 noundef 2, i32 noundef -2147483648, ptr noundef %14)
  %31 = load ptr, ptr %13, align 8
  %32 = load i32, ptr @hf_set_cyclic_list_read_block_id, align 4
  %33 = load ptr, ptr %7, align 8
  %34 = load i32, ptr %9, align 4
  %35 = add i32 %34, 2
  %36 = call ptr @proto_tree_add_item(ptr noundef %31, i32 noundef %32, ptr noundef %33, i32 noundef %35, i32 noundef 2, i32 noundef -2147483648)
  %37 = load i32, ptr %9, align 4
  %38 = add i32 %37, 4
  store i32 %38, ptr %9, align 4
  store i32 0, ptr %15, align 4
  br label %39

39:                                               ; preds = %69, %6
  %40 = load i32, ptr %15, align 4
  %41 = load i32, ptr %14, align 4
  %42 = icmp ult i32 %40, %41
  br i1 %42, label %43, label %72

43:                                               ; preds = %39
  %44 = load ptr, ptr %13, align 8
  %45 = load i32, ptr @hf_set_cyclic_list_attribute_id, align 4
  %46 = load ptr, ptr %7, align 8
  %47 = load i32, ptr %9, align 4
  %48 = call ptr @proto_tree_add_item_ret_uint(ptr noundef %44, i32 noundef %45, ptr noundef %46, i32 noundef %47, i32 noundef 2, i32 noundef -2147483648, ptr noundef %16)
  store ptr %48, ptr %17, align 8
  %49 = load i32, ptr %11, align 4
  %50 = load i32, ptr %16, align 4
  %51 = call ptr @cip_get_attribute(i32 noundef 66, i32 noundef %49, i32 noundef %50)
  store ptr %51, ptr %18, align 8
  %52 = load ptr, ptr %18, align 8
  %53 = icmp ne ptr %52, null
  br i1 %53, label %54, label %59

54:                                               ; preds = %43
  %55 = load ptr, ptr %17, align 8
  %56 = load ptr, ptr %18, align 8
  %57 = getelementptr inbounds %struct.attribute_info, ptr %56, i32 0, i32 4
  %58 = load ptr, ptr %57, align 8
  call void (ptr, ptr, ...) @proto_item_append_text(ptr noundef %55, ptr noundef @.str.719, ptr noundef %58)
  br label %59

59:                                               ; preds = %54, %43
  %60 = load i32, ptr %9, align 4
  %61 = add i32 %60, 2
  store i32 %61, ptr %9, align 4
  %62 = load ptr, ptr %13, align 8
  %63 = load i32, ptr @hf_set_cyclic_list_attr_sts, align 4
  %64 = load ptr, ptr %7, align 8
  %65 = load i32, ptr %9, align 4
  %66 = call ptr @proto_tree_add_item(ptr noundef %62, i32 noundef %63, ptr noundef %64, i32 noundef %65, i32 noundef 1, i32 noundef -2147483648)
  %67 = load i32, ptr %9, align 4
  %68 = add i32 %67, 2
  store i32 %68, ptr %9, align 4
  br label %69

69:                                               ; preds = %59
  %70 = load i32, ptr %15, align 4
  %71 = add i32 %70, 1
  store i32 %71, ptr %15, align 4
  br label %39, !llvm.loop !13

72:                                               ; preds = %39
  ret void
}