; Function Attrs: nounwind uwtable
define internal fastcc void @dissect_set_cyclic_list_respone(ptr noundef %0, ptr noundef %1, i32 noundef %2, i32 noundef range(i32 1, -4) %3, i32 noundef range(i32 0, 256) %4, ptr noundef %5) unnamed_addr #0 {
  %7 = alloca i32, align 4
  %8 = alloca i32, align 4
  %9 = load i32, ptr @ett_set_cyclic_list, align 4
  %10 = tail call ptr @proto_tree_add_subtree(ptr noundef %1, ptr noundef %0, i32 noundef %2, i32 noundef %3, i32 noundef %9, ptr noundef null, ptr noundef %5) #4
  %11 = load i32, ptr @hf_set_cyclic_list_attribute_cnt, align 4
  %12 = call ptr @proto_tree_add_item_ret_uint(ptr noundef %10, i32 noundef %11, ptr noundef %0, i32 noundef %2, i32 noundef 2, i32 noundef -2147483648, ptr noundef nonnull %7) #4
  %13 = load i32, ptr @hf_set_cyclic_list_read_block_id, align 4
  %14 = add i32 %2, 2
  %15 = call ptr @proto_tree_add_item(ptr noundef %10, i32 noundef %13, ptr noundef %0, i32 noundef %14, i32 noundef 2, i32 noundef -2147483648) #4
  %16 = load i32, ptr %7, align 4
  %.not31 = icmp eq i32 %16, 0
  br i1 %.not31, label %._crit_edge, label %.lr.ph

.lr.ph:                                           ; preds = %6, %24
  %.0.in29 = phi i32 [ %.030, %24 ], [ %2, %6 ]
  %.02528 = phi i32 [ %28, %24 ], [ 0, %6 ]
  %.030 = add i32 %.0.in29, 4
  %17 = load i32, ptr @hf_set_cyclic_list_attribute_id, align 4
  %18 = call ptr @proto_tree_add_item_ret_uint(ptr noundef %10, i32 noundef %17, ptr noundef %0, i32 noundef %.030, i32 noundef 2, i32 noundef -2147483648, ptr noundef nonnull %8) #4
  %19 = load i32, ptr %8, align 4
  %20 = call ptr @cip_get_attribute(i32 noundef 66, i32 noundef %4, i32 noundef %19) #4
  %.not = icmp eq ptr %20, null
  br i1 %.not, label %24, label %21

21:                                               ; preds = %.lr.ph
  %22 = getelementptr inbounds nuw i8, ptr %20, i64 16
  %23 = load ptr, ptr %22, align 8
  call void (ptr, ptr, ...) @proto_item_append_text(ptr noundef %18, ptr noundef nonnull @.str.719, ptr noundef %23) #4
  br label %24

24:                                               ; preds = %21, %.lr.ph
  %25 = add i32 %.0.in29, 6
  %26 = load i32, ptr @hf_set_cyclic_list_attr_sts, align 4
  %27 = call ptr @proto_tree_add_item(ptr noundef %10, i32 noundef %26, ptr noundef %0, i32 noundef %25, i32 noundef 1, i32 noundef -2147483648) #4
  %28 = add nuw i32 %.02528, 1
  %29 = load i32, ptr %7, align 4
  %30 = icmp ult i32 %28, %29
  br i1 %30, label %.lr.ph, label %._crit_edge, !llvm.loop !13

._crit_edge:                                      ; preds = %24, %6
  ret void
}